target datalayout = "e-m:e-p270:32:32-p271:32:32-p272:64:64-i64:64-i128:128-f80:128-n8:16:32:64-S128"
target triple = "x86_64-pc-linux-gnu"

@.str.7 = private unnamed_addr constant [30 x i8] c"Assertion %s failed at %s:%d\0A\00", align 1
@.str.9 = private unnamed_addr constant [22 x i8] c"libavcodec/speexdec.c\00", align 1
@.str.14 = private unnamed_addr constant [30 x i8] c"!__builtin_isnan (pitch_coef)\00", align 1

; Function Attrs: nounwind uwtable
define internal void @forced_pitch_unquant(ptr noundef %0, ptr noundef %1, i32 noundef %2, i32 noundef %3, float noundef %4, ptr noundef %5, i32 noundef %6, ptr noundef %7, ptr noundef %8, ptr noundef %9, i32 noundef %10, i32 noundef %11, float noundef %12, i32 noundef %13) #1 {
  %15 = alloca ptr, align 8
  %16 = alloca ptr, align 8
  %17 = alloca i32, align 4
  %18 = alloca i32, align 4
  %19 = alloca float, align 4
  %20 = alloca ptr, align 8
  %21 = alloca i32, align 4
  %22 = alloca ptr, align 8
  %23 = alloca ptr, align 8
  %24 = alloca ptr, align 8
  %25 = alloca i32, align 4
  %26 = alloca i32, align 4
  %27 = alloca float, align 4
  %28 = alloca i32, align 4
  %29 = alloca i32, align 4
  store ptr %0, ptr %15, align 8, !tbaa !75
  store ptr %1, ptr %16, align 8, !tbaa !75
  store i32 %2, ptr %17, align 4, !tbaa !38
  store i32 %3, ptr %18, align 4, !tbaa !38
  store float %4, ptr %19, align 4, !tbaa !64
  store ptr %5, ptr %20, align 8, !tbaa !123
  store i32 %6, ptr %21, align 4, !tbaa !38
  store ptr %7, ptr %22, align 8, !tbaa !61
  store ptr %8, ptr %23, align 8, !tbaa !75
  store ptr %9, ptr %24, align 8, !tbaa !124
  store i32 %10, ptr %25, align 4, !tbaa !38
  store i32 %11, ptr %26, align 4, !tbaa !38
  store float %12, ptr %27, align 4, !tbaa !64
  store i32 %13, ptr %28, align 4, !tbaa !38
  br label %30

30:                                               ; preds = %14
  %31 = load float, ptr %19, align 4, !tbaa !64
  %32 = call i1 @llvm.is.fpclass.f32(float %31, i32 3)
  br i1 %32, label %33, label %34

33:                                               ; preds = %30
  call void (ptr, i32, ptr, ...) @av_log(ptr noundef null, i32 noundef 0, ptr noundef @.str.7, ptr noundef @.str.14, ptr noundef @.str.9, i32 noundef 289)
  call void @abort() #12
  unreachable

34:                                               ; preds = %30
  br label %35

35:                                               ; preds = %34
  %36 = load float, ptr %19, align 4, !tbaa !64
  %37 = call nsz float @llvm.minnum.f32(float %36, float 0x3FEFAE1480000000)
  store float %37, ptr %19, align 4, !tbaa !64
  call void @llvm.lifetime.start.p0(i64 4, ptr %29) #11
  store i32 0, ptr %29, align 4, !tbaa !38
  br label %38

38:                                               ; preds = %66, %35
  %39 = load i32, ptr %29, align 4, !tbaa !38
  %40 = load i32, ptr %21, align 4, !tbaa !38
  %41 = icmp slt i32 %39, %40
  br i1 %41, label %43, label %42

42:                                               ; preds = %38
  call void @llvm.lifetime.end.p0(i64 4, ptr %29) #11
  br label %69

43:                                               ; preds = %38
  %44 = load ptr, ptr %15, align 8, !tbaa !75
  %45 = load i32, ptr %29, align 4, !tbaa !38
  %46 = load i32, ptr %17, align 4, !tbaa !38
  %47 = sub nsw i32 %45, %46
  %48 = sext i32 %47 to i64
  %49 = getelementptr inbounds float, ptr %44, i64 %48
  %50 = load float, ptr %49, align 4, !tbaa !64
  %51 = load float, ptr %19, align 4, !tbaa !64
  %52 = fmul nsz float %50, %51
  %53 = load ptr, ptr %16, align 8, !tbaa !75
  %54 = load i32, ptr %29, align 4, !tbaa !38
  %55 = sext i32 %54 to i64
  %56 = getelementptr inbounds float, ptr %53, i64 %55
  store float %52, ptr %56, align 4, !tbaa !64
  %57 = load ptr, ptr %16, align 8, !tbaa !75
  %58 = load i32, ptr %29, align 4, !tbaa !38
  %59 = sext i32 %58 to i64
  %60 = getelementptr inbounds float, ptr %57, i64 %59
  %61 = load float, ptr %60, align 4, !tbaa !64
  %62 = load ptr, ptr %15, align 8, !tbaa !75
  %63 = load i32, ptr %29, align 4, !tbaa !38
  %64 = sext i32 %63 to i64
  %65 = getelementptr inbounds float, ptr %62, i64 %64
  store float %61, ptr %65, align 4, !tbaa !64
  br label %66

66:                                               ; preds = %43
  %67 = load i32, ptr %29, align 4, !tbaa !38
  %68 = add nsw i32 %67, 1
  store i32 %68, ptr %29, align 4, !tbaa !38
  br label %38, !llvm.loop !197

69:                                               ; preds = %42
  %70 = load i32, ptr %17, align 4, !tbaa !38
  %71 = load ptr, ptr %22, align 8, !tbaa !61
  %72 = getelementptr inbounds i32, ptr %71, i64 0
  store i32 %70, ptr %72, align 4, !tbaa !38
  %73 = load ptr, ptr %23, align 8, !tbaa !75
  %74 = getelementptr inbounds float, ptr %73, i64 2
  store float 0.000000e+00, ptr %74, align 4, !tbaa !64
  %75 = load ptr, ptr %23, align 8, !tbaa !75
  %76 = getelementptr inbounds float, ptr %75, i64 0
  store float 0.000000e+00, ptr %76, align 4, !tbaa !64
  %77 = load float, ptr %19, align 4, !tbaa !64
  %78 = load ptr, ptr %23, align 8, !tbaa !75
  %79 = getelementptr inbounds float, ptr %78, i64 1
  store float %77, ptr %79, align 4, !tbaa !64
  ret void
}