; Function Attrs: nounwind uwtable
define internal void @forced_pitch_unquant(ptr noundef captures(none) %0, ptr noundef writeonly captures(none) %1, i32 noundef %2, i32 %3, float noundef %4, ptr readnone captures(none) %5, i32 noundef %6, ptr noundef writeonly captures(none) %7, ptr noundef writeonly captures(none) %8, ptr readnone captures(none) %9, i32 %10, i32 %11, float %12, i32 %13) #1 {
  %15 = fcmp uno float %4, 0.000000e+00
  br i1 %15, label %16, label %17

16:                                               ; preds = %14
  tail call void (ptr, i32, ptr, ...) @av_log(ptr noundef null, i32 noundef 0, ptr noundef nonnull @.str.7, ptr noundef nonnull @.str.14, ptr noundef nonnull @.str.9, i32 noundef 289) #12
  tail call void @abort() #13
  unreachable

17:                                               ; preds = %14
  %18 = tail call nsz float @llvm.minnum.f32(float %4, float 0x3FEFAE1480000000)
  %19 = icmp sgt i32 %6, 0
  br i1 %19, label %.lr.ph.preheader, label %._crit_edge

.lr.ph.preheader:                                 ; preds = %17
  %20 = sext i32 %2 to i64
  %wide.trip.count = zext nneg i32 %6 to i64
  br label %.lr.ph

._crit_edge:                                      ; preds = %.lr.ph, %17
  store i32 %2, ptr %7, align 4, !tbaa !113
  %21 = getelementptr inbounds nuw i8, ptr %8, i64 8
  store float 0.000000e+00, ptr %21, align 4, !tbaa !105
  store float 0.000000e+00, ptr %8, align 4, !tbaa !105
  %22 = getelementptr inbounds nuw i8, ptr %8, i64 4
  store float %18, ptr %22, align 4, !tbaa !105
  ret void

.lr.ph:                                           ; preds = %.lr.ph.preheader, %.lr.ph
  %indvars.iv = phi i64 [ 0, %.lr.ph.preheader ], [ %indvars.iv.next, %.lr.ph ]
  %23 = sub nsw i64 %indvars.iv, %20
  %24 = getelementptr inbounds float, ptr %0, i64 %23
  %25 = load float, ptr %24, align 4, !tbaa !105
  %26 = fmul nsz float %18, %25
  %27 = getelementptr inbounds nuw float, ptr %1, i64 %indvars.iv
  store float %26, ptr %27, align 4, !tbaa !105
  %28 = getelementptr inbounds nuw float, ptr %0, i64 %indvars.iv
  store float %26, ptr %28, align 4, !tbaa !105
  %indvars.iv.next = add nuw nsw i64 %indvars.iv, 1
  %exitcond.not = icmp eq i64 %indvars.iv.next, %wide.trip.count
  br i1 %exitcond.not, label %._crit_edge, label %.lr.ph, !llvm.loop !182
}